target datalayout = "e-m:e-p270:32:32-p271:32:32-p272:64:64-i64:64-i128:128-f80:128-n8:16:32:64-S128"
target triple = "x86_64-pc-linux-gnu"

%struct.blob = type { ptr, ptr, i64, i64, i32 }
%struct.fileblob = type { ptr, i32, %struct.blob, ptr, ptr, i64, i8 }
%struct.cli_ctx_tag = type { ptr, ptr, ptr, ptr, ptr, ptr, ptr, i64, ptr, i32, i32, ptr, i32, i32, ptr, [16 x i8], ptr, ptr, ptr, ptr, ptr, ptr, %struct.timeval, i8, i8 }
%struct.timeval = type { i64, i64 }

@.str.1 = private unnamed_addr constant [10 x i8] c"b != NULL\00", align 1
@.str.2 = private unnamed_addr constant [108 x i8] c"generated/home/dtcxzyw/WorkSpace/Projects/compilers/llvm-opt-benchmark/bench/clamav/clamav/libclamav/blob.c\00", align 1
@__PRETTY_FUNCTION__.blobSetFilename = private unnamed_addr constant [57 x i8] c"void blobSetFilename(blob *, const char *, const char *)\00", align 1
@.str.5 = private unnamed_addr constant [17 x i8] c"filename != NULL\00", align 1
@.str.6 = private unnamed_addr constant [21 x i8] c"blobSetFilename: %s\0A\00", align 1
@.str.7 = private unnamed_addr constant [13 x i8] c"data != NULL\00", align 1
@.str.24 = private unnamed_addr constant [17 x i8] c"fullname != NULL\00", align 1
@__PRETTY_FUNCTION__.fileblobPartialSet = private unnamed_addr constant [64 x i8] c"void fileblobPartialSet(fileblob *, const char *, const char *)\00", align 1
@.str.25 = private unnamed_addr constant [34 x i8] c"fileblobPartialSet: saving to %s\0A\00", align 1
@.str.26 = private unnamed_addr constant [47 x i8] c"fileblobPartialSet: unable to create file: %s\0A\00", align 1
@.str.27 = private unnamed_addr constant [3 x i8] c"wb\00", align 1
@.str.28 = private unnamed_addr constant [36 x i8] c"fileblobSetFilename: fdopen failed\0A\00", align 1
@__PRETTY_FUNCTION__.fileblobAddData = private unnamed_addr constant [63 x i8] c"int fileblobAddData(fileblob *, const unsigned char *, size_t)\00", align 1
@.str.31 = private unnamed_addr constant [61 x i8] c"fileblobAddData: Can't write %lu bytes to temporary file %s\0A\00", align 1

; Function Attrs: nounwind uwtable
define void @sanitiseName(ptr noundef %0) #0 {
  %2 = alloca ptr, align 8
  %3 = alloca i8, align 1
  store ptr %0, ptr %2, align 8
  br label %4

4:                                                ; preds = %42, %1
  %5 = load ptr, ptr %2, align 8
  %6 = load i8, ptr %5, align 1
  store i8 %6, ptr %3, align 1
  %7 = icmp ne i8 %6, 0
  br i1 %7, label %8, label %45

8:                                                ; preds = %4
  %9 = load i8, ptr %3, align 1
  %10 = sext i8 %9 to i32
  %11 = icmp ne i32 %10, 46
  br i1 %11, label %12, label %42

12:                                               ; preds = %8
  %13 = load i8, ptr %3, align 1
  %14 = sext i8 %13 to i32
  %15 = icmp ne i32 %14, 95
  br i1 %15, label %16, label %42

16:                                               ; preds = %12
  %17 = load i8, ptr %3, align 1
  %18 = sext i8 %17 to i32
  %19 = icmp sgt i32 %18, 122
  br i1 %19, label %40, label %20

20:                                               ; preds = %16
  %21 = load i8, ptr %3, align 1
  %22 = sext i8 %21 to i32
  %23 = icmp slt i32 %22, 48
  br i1 %23, label %40, label %24

24:                                               ; preds = %20
  %25 = load i8, ptr %3, align 1
  %26 = sext i8 %25 to i32
  %27 = icmp sgt i32 %26, 57
  br i1 %27, label %28, label %32

28:                                               ; preds = %24
  %29 = load i8, ptr %3, align 1
  %30 = sext i8 %29 to i32
  %31 = icmp slt i32 %30, 65
  br i1 %31, label %40, label %32

32:                                               ; preds = %28, %24
  %33 = load i8, ptr %3, align 1
  %34 = sext i8 %33 to i32
  %35 = icmp sgt i32 %34, 90
  br i1 %35, label %36, label %42

36:                                               ; preds = %32
  %37 = load i8, ptr %3, align 1
  %38 = sext i8 %37 to i32
  %39 = icmp slt i32 %38, 97
  br i1 %39, label %40, label %42

40:                                               ; preds = %36, %28, %20, %16
  %41 = load ptr, ptr %2, align 8
  store i8 95, ptr %41, align 1
  br label %42

42:                                               ; preds = %40, %36, %32, %12, %8
  %43 = load ptr, ptr %2, align 8
  %44 = getelementptr inbounds i8, ptr %43, i32 1
  store ptr %44, ptr %2, align 8
  br label %4

45:                                               ; preds = %4
  ret void
}

; Function Attrs: nounwind uwtable
define i32 @fileblobAddData(ptr noundef %0, ptr noundef %1, i64 noundef %2) #0 {
  %4 = alloca i32, align 4
  %5 = alloca ptr, align 8
  %6 = alloca ptr, align 8
  %7 = alloca i64, align 8
  store ptr %0, ptr %5, align 8
  store ptr %1, ptr %6, align 8
  store i64 %2, ptr %7, align 8
  %8 = load i64, ptr %7, align 8
  %9 = icmp eq i64 %8, 0
  br i1 %9, label %10, label %11

10:                                               ; preds = %3
  store i32 0, ptr %4, align 4
  br label %47

11:                                               ; preds = %3
  %12 = load ptr, ptr %6, align 8
  %13 = icmp ne ptr %12, null
  br i1 %13, label %14, label %15

14:                                               ; preds = %11
  br label %16

15:                                               ; preds = %11
  call void @__assert_fail(ptr noundef @.str.7, ptr noundef @.str.2, i32 noundef 579, ptr noundef @__PRETTY_FUNCTION__.fileblobAddData) #8
  unreachable

16:                                               ; preds = %14
  %17 = load ptr, ptr %5, align 8
  %18 = getelementptr inbounds %struct.fileblob, ptr %17, i32 0, i32 0
  %19 = load ptr, ptr %18, align 8
  %20 = icmp ne ptr %19, null
  br i1 %20, label %21, label %41

21:                                               ; preds = %16
  %22 = load ptr, ptr %6, align 8
  %23 = load i64, ptr %7, align 8
  %24 = load ptr, ptr %5, align 8
  %25 = getelementptr inbounds %struct.fileblob, ptr %24, i32 0, i32 0
  %26 = load ptr, ptr %25, align 8
  %27 = call i64 @fwrite(ptr noundef %22, i64 noundef %23, i64 noundef 1, ptr noundef %26)
  %28 = icmp ne i64 %27, 1
  br i1 %28, label %29, label %35

29:                                               ; preds = %21
  %30 = load i64, ptr %7, align 8
  %31 = load ptr, ptr %5, align 8
  %32 = getelementptr inbounds %struct.fileblob, ptr %31, i32 0, i32 2
  %33 = getelementptr inbounds %struct.blob, ptr %32, i32 0, i32 0
  %34 = load ptr, ptr %33, align 8
  call void (ptr, ...) @cli_errmsg(ptr noundef @.str.31, i64 noundef %30, ptr noundef %34)
  store i32 -1, ptr %4, align 4
  br label %47

35:                                               ; preds = %21
  %36 = load ptr, ptr %5, align 8
  %37 = getelementptr inbounds %struct.fileblob, ptr %36, i32 0, i32 6
  %38 = load i8, ptr %37, align 8
  %39 = and i8 %38, -2
  %40 = or i8 %39, 1
  store i8 %40, ptr %37, align 8
  store i32 0, ptr %4, align 4
  br label %47

41:                                               ; preds = %16
  %42 = load ptr, ptr %5, align 8
  %43 = getelementptr inbounds %struct.fileblob, ptr %42, i32 0, i32 2
  %44 = load ptr, ptr %6, align 8
  %45 = load i64, ptr %7, align 8
  %46 = call i32 @blobAddData(ptr noundef %43, ptr noundef %44, i64 noundef %45)
  store i32 %46, ptr %4, align 4
  br label %47

47:                                               ; preds = %41, %35, %29, %10
  %48 = load i32, ptr %4, align 4
  ret i32 %48
}

; Function Attrs: nounwind uwtable
define void @blobSetFilename(ptr noundef %0, ptr noundef %1, ptr noundef %2) #0 {
  %4 = alloca ptr, align 8
  %5 = alloca ptr, align 8
  %6 = alloca ptr, align 8
  store ptr %0, ptr %4, align 8
  store ptr %1, ptr %5, align 8
  store ptr %2, ptr %6, align 8
  %7 = load ptr, ptr %4, align 8
  %8 = icmp ne ptr %7, null
  br i1 %8, label %9, label %10

9:                                                ; preds = %3
  br label %11

10:                                               ; preds = %3
  call void @__assert_fail(ptr noundef @.str.1, ptr noundef @.str.2, i32 noundef 144, ptr noundef @__PRETTY_FUNCTION__.blobSetFilename) #8
  unreachable

11:                                               ; preds = %9
  %12 = load ptr, ptr %6, align 8
  %13 = icmp ne ptr %12, null
  br i1 %13, label %14, label %15

14:                                               ; preds = %11
  br label %16

15:                                               ; preds = %11
  call void @__assert_fail(ptr noundef @.str.5, ptr noundef @.str.2, i32 noundef 148, ptr noundef @__PRETTY_FUNCTION__.blobSetFilename) #8
  unreachable

16:                                               ; preds = %14
  %17 = load ptr, ptr %6, align 8
  call void (ptr, ...) @cli_dbgmsg(ptr noundef @.str.6, ptr noundef %17)
  %18 = load ptr, ptr %4, align 8
  %19 = getelementptr inbounds %struct.blob, ptr %18, i32 0, i32 0
  %20 = load ptr, ptr %19, align 8
  %21 = icmp ne ptr %20, null
  br i1 %21, label %22, label %26

22:                                               ; preds = %16
  %23 = load ptr, ptr %4, align 8
  %24 = getelementptr inbounds %struct.blob, ptr %23, i32 0, i32 0
  %25 = load ptr, ptr %24, align 8
  call void @free(ptr noundef %25) #9
  br label %26

26:                                               ; preds = %22, %16
  %27 = load ptr, ptr %6, align 8
  %28 = call ptr @cli_safer_strdup(ptr noundef %27)
  %29 = load ptr, ptr %4, align 8
  %30 = getelementptr inbounds %struct.blob, ptr %29, i32 0, i32 0
  store ptr %28, ptr %30, align 8
  %31 = load ptr, ptr %4, align 8
  %32 = getelementptr inbounds %struct.blob, ptr %31, i32 0, i32 0
  %33 = load ptr, ptr %32, align 8
  %34 = icmp ne ptr %33, null
  br i1 %34, label %35, label %39

35:                                               ; preds = %26
  %36 = load ptr, ptr %4, align 8
  %37 = getelementptr inbounds %struct.blob, ptr %36, i32 0, i32 0
  %38 = load ptr, ptr %37, align 8
  call void @sanitiseName(ptr noundef %38)
  br label %39

39:                                               ; preds = %35, %26
  ret void
}

; Function Attrs: nounwind uwtable
define void @fileblobPartialSet(ptr noundef %0, ptr noundef %1, ptr noundef %2) #0 {
  %4 = alloca ptr, align 8
  %5 = alloca ptr, align 8
  %6 = alloca ptr, align 8
  store ptr %0, ptr %4, align 8
  store ptr %1, ptr %5, align 8
  store ptr %2, ptr %6, align 8
  %7 = load ptr, ptr %4, align 8
  %8 = getelementptr inbounds %struct.fileblob, ptr %7, i32 0, i32 2
  %9 = getelementptr inbounds %struct.blob, ptr %8, i32 0, i32 0
  %10 = load ptr, ptr %9, align 8
  %11 = icmp ne ptr %10, null
  br i1 %11, label %12, label %13

12:                                               ; preds = %3
  br label %105

13:                                               ; preds = %3
  %14 = load ptr, ptr %5, align 8
  %15 = icmp ne ptr %14, null
  br i1 %15, label %16, label %17

16:                                               ; preds = %13
  br label %18

17:                                               ; preds = %13
  call void @__assert_fail(ptr noundef @.str.24, ptr noundef @.str.2, i32 noundef 505, ptr noundef @__PRETTY_FUNCTION__.fileblobPartialSet) #8
  unreachable

18:                                               ; preds = %16
  %19 = load ptr, ptr %5, align 8
  call void (ptr, ...) @cli_dbgmsg(ptr noundef @.str.25, ptr noundef %19)
  %20 = load ptr, ptr %5, align 8
  %21 = call i32 (ptr, i32, ...) @open(ptr noundef %20, i32 noundef 705, i32 noundef 384)
  %22 = load ptr, ptr %4, align 8
  %23 = getelementptr inbounds %struct.fileblob, ptr %22, i32 0, i32 1
  store i32 %21, ptr %23, align 8
  %24 = load ptr, ptr %4, align 8
  %25 = getelementptr inbounds %struct.fileblob, ptr %24, i32 0, i32 1
  %26 = load i32, ptr %25, align 8
  %27 = icmp slt i32 %26, 0
  br i1 %27, label %28, label %30

28:                                               ; preds = %18
  %29 = load ptr, ptr %5, align 8
  call void (ptr, ...) @cli_errmsg(ptr noundef @.str.26, ptr noundef %29)
  br label %105

30:                                               ; preds = %18
  %31 = load ptr, ptr %4, align 8
  %32 = getelementptr inbounds %struct.fileblob, ptr %31, i32 0, i32 1
  %33 = load i32, ptr %32, align 8
  %34 = call noalias ptr @fdopen(i32 noundef %33, ptr noundef @.str.27) #9
  %35 = load ptr, ptr %4, align 8
  %36 = getelementptr inbounds %struct.fileblob, ptr %35, i32 0, i32 0
  store ptr %34, ptr %36, align 8
  %37 = load ptr, ptr %4, align 8
  %38 = getelementptr inbounds %struct.fileblob, ptr %37, i32 0, i32 0
  %39 = load ptr, ptr %38, align 8
  %40 = icmp eq ptr %39, null
  br i1 %40, label %41, label %46

41:                                               ; preds = %30
  call void (ptr, ...) @cli_errmsg(ptr noundef @.str.28)
  %42 = load ptr, ptr %4, align 8
  %43 = getelementptr inbounds %struct.fileblob, ptr %42, i32 0, i32 1
  %44 = load i32, ptr %43, align 8
  %45 = call i32 @close(i32 noundef %44)
  br label %105

46:                                               ; preds = %30
  %47 = load ptr, ptr %4, align 8
  %48 = getelementptr inbounds %struct.fileblob, ptr %47, i32 0, i32 2
  %49 = load ptr, ptr %4, align 8
  %50 = getelementptr inbounds %struct.fileblob, ptr %49, i32 0, i32 4
  %51 = load ptr, ptr %50, align 8
  %52 = icmp ne ptr %51, null
  br i1 %52, label %53, label %59

53:                                               ; preds = %46
  %54 = load ptr, ptr %4, align 8
  %55 = getelementptr inbounds %struct.fileblob, ptr %54, i32 0, i32 4
  %56 = load ptr, ptr %55, align 8
  %57 = getelementptr inbounds %struct.cli_ctx_tag, ptr %56, i32 0, i32 2
  %58 = load ptr, ptr %57, align 8
  br label %60

59:                                               ; preds = %46
  br label %60

60:                                               ; preds = %59, %53
  %61 = phi ptr [ %58, %53 ], [ null, %59 ]
  %62 = load ptr, ptr %5, align 8
  call void @blobSetFilename(ptr noundef %48, ptr noundef %61, ptr noundef %62)
  %63 = load ptr, ptr %4, align 8
  %64 = getelementptr inbounds %struct.fileblob, ptr %63, i32 0, i32 2
  %65 = getelementptr inbounds %struct.blob, ptr %64, i32 0, i32 1
  %66 = load ptr, ptr %65, align 8
  %67 = icmp ne ptr %66, null
  br i1 %67, label %68, label %100

68:                                               ; preds = %60
  %69 = load ptr, ptr %4, align 8
  %70 = load ptr, ptr %4, align 8
  %71 = getelementptr inbounds %struct.fileblob, ptr %70, i32 0, i32 2
  %72 = getelementptr inbounds %struct.blob, ptr %71, i32 0, i32 1
  %73 = load ptr, ptr %72, align 8
  %74 = load ptr, ptr %4, align 8
  %75 = getelementptr inbounds %struct.fileblob, ptr %74, i32 0, i32 2
  %76 = getelementptr inbounds %struct.blob, ptr %75, i32 0, i32 2
  %77 = load i64, ptr %76, align 8
  %78 = call i32 @fileblobAddData(ptr noundef %69, ptr noundef %73, i64 noundef %77)
  %79 = icmp eq i32 %78, 0
  br i1 %79, label %80, label %99

80:                                               ; preds = %68
  %81 = load ptr, ptr %4, align 8
  %82 = getelementptr inbounds %struct.fileblob, ptr %81, i32 0, i32 2
  %83 = getelementptr inbounds %struct.blob, ptr %82, i32 0, i32 1
  %84 = load ptr, ptr %83, align 8
  call void @free(ptr noundef %84) #9
  %85 = load ptr, ptr %4, align 8
  %86 = getelementptr inbounds %struct.fileblob, ptr %85, i32 0, i32 2
  %87 = getelementptr inbounds %struct.blob, ptr %86, i32 0, i32 1
  store ptr null, ptr %87, align 8
  %88 = load ptr, ptr %4, align 8
  %89 = getelementptr inbounds %struct.fileblob, ptr %88, i32 0, i32 2
  %90 = getelementptr inbounds %struct.blob, ptr %89, i32 0, i32 3
  store i64 0, ptr %90, align 8
  %91 = load ptr, ptr %4, align 8
  %92 = getelementptr inbounds %struct.fileblob, ptr %91, i32 0, i32 2
  %93 = getelementptr inbounds %struct.blob, ptr %92, i32 0, i32 2
  store i64 0, ptr %93, align 8
  %94 = load ptr, ptr %4, align 8
  %95 = getelementptr inbounds %struct.fileblob, ptr %94, i32 0, i32 6
  %96 = load i8, ptr %95, align 8
  %97 = and i8 %96, -2
  %98 = or i8 %97, 1
  store i8 %98, ptr %95, align 8
  br label %99

99:                                               ; preds = %80, %68
  br label %100

100:                                              ; preds = %99, %60
  %101 = load ptr, ptr %5, align 8
  %102 = call ptr @cli_safer_strdup(ptr noundef %101)
  %103 = load ptr, ptr %4, align 8
  %104 = getelementptr inbounds %struct.fileblob, ptr %103, i32 0, i32 3
  store ptr %102, ptr %104, align 8
  br label %105

105:                                              ; preds = %100, %41, %28, %12
  ret void
}