; Function Attrs: nounwind uwtable
define void @fileblobPartialSet(ptr noundef %0, ptr noundef %1, ptr nocapture noundef readnone %2) local_unnamed_addr #2 {
  %4 = getelementptr inbounds i8, ptr %0, i64 16
  %5 = load ptr, ptr %4, align 8
  %.not = icmp eq ptr %5, null
  br i1 %.not, label %6, label %54

6:                                                ; preds = %3
  %.not29 = icmp eq ptr %1, null
  br i1 %.not29, label %7, label %8

7:                                                ; preds = %6
  tail call void @__assert_fail(ptr noundef nonnull @.str.24, ptr noundef nonnull @.str.2, i32 noundef 505, ptr noundef nonnull @__PRETTY_FUNCTION__.fileblobPartialSet) #17
  unreachable

8:                                                ; preds = %6
  tail call void (ptr, ...) @cli_dbgmsg(ptr noundef nonnull @.str.25, ptr noundef nonnull %1) #16
  %9 = tail call i32 (ptr, i32, ...) @open(ptr noundef nonnull %1, i32 noundef 705, i32 noundef 384) #16
  %10 = getelementptr inbounds i8, ptr %0, i64 8
  store i32 %9, ptr %10, align 8
  %11 = icmp slt i32 %9, 0
  br i1 %11, label %12, label %13

12:                                               ; preds = %8
  tail call void (ptr, ...) @cli_errmsg(ptr noundef nonnull @.str.26, ptr noundef nonnull %1) #16
  br label %54

13:                                               ; preds = %8
  %14 = tail call noalias ptr @fdopen(i32 noundef %9, ptr noundef nonnull @.str.27) #16
  store ptr %14, ptr %0, align 8
  %15 = icmp eq ptr %14, null
  br i1 %15, label %16, label %19

16:                                               ; preds = %13
  tail call void (ptr, ...) @cli_errmsg(ptr noundef nonnull @.str.28) #16
  %17 = load i32, ptr %10, align 8
  %18 = tail call i32 @close(i32 noundef %17) #16
  br label %54

19:                                               ; preds = %13
  tail call void (ptr, ...) @cli_dbgmsg(ptr noundef nonnull @.str.6, ptr noundef nonnull %1) #16
  %20 = load ptr, ptr %4, align 8
  %.not13.i = icmp eq ptr %20, null
  br i1 %.not13.i, label %22, label %21

21:                                               ; preds = %19
  tail call void @free(ptr noundef nonnull %20) #16
  br label %22

22:                                               ; preds = %21, %19
  %23 = tail call ptr @cli_safer_strdup(ptr noundef nonnull %1) #16
  store ptr %23, ptr %4, align 8
  %.not14.i = icmp eq ptr %23, null
  br i1 %.not14.i, label %blobSetFilename.exit, label %.preheader.i

.preheader.i:                                     ; preds = %22, %28
  %.0.i.i = phi ptr [ %29, %28 ], [ %23, %22 ]
  %24 = load i8, ptr %.0.i.i, align 1
  switch i8 %24, label %25 [
    i8 0, label %blobSetFilename.exit
    i8 95, label %28
    i8 46, label %28
  ]

25:                                               ; preds = %.preheader.i
  %26 = add i8 %24, -123
  %or.cond5.i.i = icmp ult i8 %26, -75
  br i1 %or.cond5.i.i, label %27, label %switch.early.test.i.i

switch.early.test.i.i:                            ; preds = %25
  switch i8 %24, label %28 [
    i8 96, label %27
    i8 95, label %27
    i8 94, label %27
    i8 93, label %27
    i8 92, label %27
    i8 91, label %27
    i8 64, label %27
    i8 63, label %27
    i8 62, label %27
    i8 61, label %27
    i8 60, label %27
    i8 59, label %27
    i8 58, label %27
  ]

27:                                               ; preds = %switch.early.test.i.i, %switch.early.test.i.i, %switch.early.test.i.i, %switch.early.test.i.i, %switch.early.test.i.i, %switch.early.test.i.i, %switch.early.test.i.i, %switch.early.test.i.i, %switch.early.test.i.i, %switch.early.test.i.i, %switch.early.test.i.i, %switch.early.test.i.i, %switch.early.test.i.i, %25
  store i8 95, ptr %.0.i.i, align 1
  br label %28

28:                                               ; preds = %27, %switch.early.test.i.i, %.preheader.i, %.preheader.i
  %29 = getelementptr inbounds i8, ptr %.0.i.i, i64 1
  br label %.preheader.i

blobSetFilename.exit:                             ; preds = %.preheader.i, %22
  %30 = getelementptr inbounds i8, ptr %0, i64 24
  %31 = load ptr, ptr %30, align 8
  %.not31 = icmp eq ptr %31, null
  br i1 %.not31, label %51, label %32

32:                                               ; preds = %blobSetFilename.exit
  %33 = getelementptr inbounds i8, ptr %0, i64 32
  %34 = load i64, ptr %33, align 8
  %35 = icmp eq i64 %34, 0
  br i1 %35, label %fileblobAddData.exit.thread, label %36

36:                                               ; preds = %32
  %37 = load ptr, ptr %0, align 8
  %.not15.i = icmp eq ptr %37, null
  br i1 %.not15.i, label %fileblobAddData.exit, label %38

38:                                               ; preds = %36
  %39 = tail call i64 @fwrite(ptr noundef nonnull %31, i64 noundef %34, i64 noundef 1, ptr noundef nonnull %37)
  %.not16.i = icmp eq i64 %39, 1
  br i1 %.not16.i, label %41, label %fileblobAddData.exit.thread33

fileblobAddData.exit.thread33:                    ; preds = %38
  %40 = load ptr, ptr %4, align 8
  tail call void (ptr, ...) @cli_errmsg(ptr noundef nonnull @.str.31, i64 noundef %34, ptr noundef %40) #16
  br label %51

41:                                               ; preds = %38
  %42 = getelementptr inbounds i8, ptr %0, i64 80
  %43 = load i8, ptr %42, align 8
  %44 = or i8 %43, 1
  store i8 %44, ptr %42, align 8
  br label %fileblobAddData.exit.thread

fileblobAddData.exit:                             ; preds = %36
  %45 = tail call i32 @blobAddData(ptr noundef nonnull %4, ptr noundef nonnull %31, i64 noundef %34), !range !4
  %46 = icmp eq i32 %45, 0
  br i1 %46, label %fileblobAddData.exit.thread, label %51

fileblobAddData.exit.thread:                      ; preds = %32, %41, %fileblobAddData.exit
  %47 = load ptr, ptr %30, align 8
  tail call void @free(ptr noundef %47) #16
  %48 = getelementptr inbounds i8, ptr %0, i64 80
  tail call void @llvm.memset.p0.i64(ptr noundef nonnull align 8 dereferenceable(24) %30, i8 0, i64 24, i1 false)
  %49 = load i8, ptr %48, align 8
  %50 = or i8 %49, 1
  store i8 %50, ptr %48, align 8
  br label %51

51:                                               ; preds = %fileblobAddData.exit.thread33, %fileblobAddData.exit, %fileblobAddData.exit.thread, %blobSetFilename.exit
  %52 = tail call ptr @cli_safer_strdup(ptr noundef nonnull %1) #16
  %53 = getelementptr inbounds i8, ptr %0, i64 56
  store ptr %52, ptr %53, align 8
  br label %54

54:                                               ; preds = %3, %51, %16, %12
  ret void
}